target datalayout = "e-m:e-p270:32:32-p271:32:32-p272:64:64-i64:64-i128:128-f80:128-n8:16:32:64-S128"
target triple = "x86_64-pc-linux-gnu"

%class.QString = type { %struct.QArrayDataPointer }
%struct.QArrayDataPointer = type { ptr, ptr, i64 }
%class.QPaintDevice.base = type <{ ptr, i16 }>
%class.TCPStreamDialog = type { %class.GeometryStateDialog, ptr, ptr, %class.QMultiMap, double, i8, %class.QMap, double, i8, %struct.tcp_graph, ptr, %class.QString, ptr, ptr, ptr, ptr, ptr, ptr, ptr, ptr, ptr, ptr, ptr, ptr, ptr, ptr, %class.QRectF, i32, [4 x i8], %class.QTransform, i8, ptr, %class.QPoint, %class.QMenu, %"class.TCPStreamDialog::GraphUpdater", i32, i32, i32, double }
%class.GeometryStateDialog = type { %class.QDialog, %class.QString }
%class.QDialog = type { %class.QWidget }
%class.QWidget = type { %class.QObject, %class.QPaintDevice.base, ptr }
%class.QObject = type { ptr, %class.QScopedPointer }
%class.QScopedPointer = type { ptr }
%class.QMultiMap = type { %"class.QtPrivate::QExplicitlySharedDataPointerV2" }
%"class.QtPrivate::QExplicitlySharedDataPointerV2" = type { ptr }
%class.QMap = type { %"class.QtPrivate::QExplicitlySharedDataPointerV2.5" }
%"class.QtPrivate::QExplicitlySharedDataPointerV2.5" = type { ptr }
%struct.tcp_graph = type { i32, %struct._address, i16, %struct._address, i16, i32, ptr }
%struct._address = type { i32, i32, ptr, ptr }
%class.QRectF = type { double, double, double, double }
%class.QTransform = type <{ [3 x [3 x double]], i16, [6 x i8] }>
%class.QPoint = type { i32, i32 }
%class.QMenu = type { %class.QWidget }
%"class.TCPStreamDialog::GraphUpdater" = type <{ ptr, ptr, i8, [7 x i8] }>
%class.QPointer = type { %class.QWeakPointer }
%class.QWeakPointer = type { ptr, ptr }
%class.QCPLayerable = type <{ %class.QObject, i8, [7 x i8], ptr, %class.QPointer, ptr, i8, [7 x i8] }>

; Function Attrs: mustprogress nounwind uwtable
define linkonce_odr noundef zeroext i1 @_ZNK12QCPLayerable7visibleEv(ptr noundef nonnull align 8 dereferenceable(57) %0) #2 comdat align 2 {
  %2 = alloca ptr, align 8
  store ptr %0, ptr %2, align 8
  %3 = load ptr, ptr %2, align 8
  %4 = getelementptr inbounds %class.QCPLayerable, ptr %3, i32 0, i32 1
  %5 = load i8, ptr %4, align 8
  %6 = trunc i8 %5 to i1
  ret i1 %6
}

; Function Attrs: mustprogress uwtable
define void @_ZN15TCPStreamDialog29on_actionGoToPacket_triggeredEv(ptr noundef nonnull align 8 dereferenceable(584) %0) #1 align 2 {
  %2 = alloca ptr, align 8
  store ptr %0, ptr %2, align 8
  %3 = load ptr, ptr %2, align 8
  %4 = getelementptr inbounds %class.TCPStreamDialog, ptr %3, i32 0, i32 25
  %5 = load ptr, ptr %4, align 8
  %6 = call noundef zeroext i1 @_ZNK12QCPLayerable7visibleEv(ptr noundef nonnull align 8 dereferenceable(57) %5)
  br i1 %6, label %7, label %18

7:                                                ; preds = %1
  %8 = getelementptr inbounds %class.TCPStreamDialog, ptr %3, i32 0, i32 2
  %9 = load ptr, ptr %8, align 8
  %10 = icmp ne ptr %9, null
  br i1 %10, label %11, label %18

11:                                               ; preds = %7
  %12 = getelementptr inbounds %class.TCPStreamDialog, ptr %3, i32 0, i32 27
  %13 = load i32, ptr %12, align 8
  %14 = icmp ugt i32 %13, 0
  br i1 %14, label %15, label %18

15:                                               ; preds = %11
  %16 = getelementptr inbounds %class.TCPStreamDialog, ptr %3, i32 0, i32 27
  %17 = load i32, ptr %16, align 8
  call void @_ZN15TCPStreamDialog10goToPacketEi(ptr noundef nonnull align 8 dereferenceable(584) %3, i32 noundef %17)
  br label %18

18:                                               ; preds = %15, %11, %7, %1
  ret void
}