; Function Attrs: mustprogress uwtable
define void @_ZN15TCPStreamDialog29on_actionGoToPacket_triggeredEv(ptr noundef nonnull align 8 dereferenceable(584) %0) local_unnamed_addr #2 align 2 {
  %2 = getelementptr inbounds i8, ptr %0, i64 344
  %3 = load ptr, ptr %2, align 8
  %4 = getelementptr inbounds i8, ptr %3, i64 16
  %5 = load i8, ptr %4, align 8
  %6 = and i8 %5, 1
  %.not4 = icmp eq i8 %6, 0
  %7 = getelementptr inbounds i8, ptr %0, i64 72
  %8 = load ptr, ptr %7, align 8
  %.not = icmp eq ptr %8, null
  %or.cond = select i1 %.not4, i1 true, i1 %.not
  br i1 %or.cond, label %13, label %9

9:                                                ; preds = %1
  %10 = getelementptr inbounds i8, ptr %0, i64 384
  %11 = load i32, ptr %10, align 8
  %.not1 = icmp eq i32 %11, 0
  br i1 %.not1, label %13, label %12

12:                                               ; preds = %9
  tail call void @_ZN15TCPStreamDialog10goToPacketEi(ptr noundef nonnull align 8 dereferenceable(584) %0, i32 noundef %11)
  br label %13

13:                                               ; preds = %12, %9, %1
  ret void
}